target datalayout = "e-m:e-p270:32:32-p271:32:32-p272:64:64-i64:64-i128:128-f80:128-n8:16:32:64-S128"
target triple = "x86_64-pc-linux-gnu"

%class.symbol = type { ptr }
%"class.intblast::translator_trail" = type { %class.bv2int_translator_trail, ptr }
%class.bv2int_translator_trail = type { ptr }
%"class.sat::extension" = type { ptr, i8, i32, %class.symbol, ptr }
%"class.euf::th_internalizer" = type { ptr, %class.ptr_vector, %class.svector }
%class.ptr_vector = type { %class.vector }
%class.vector = type { ptr }
%class.svector = type { %class.vector.0 }
%class.vector.0 = type { ptr }
%"class.euf::th_decompile" = type { ptr }
%class.ptr_vector.24 = type { %class.vector.25 }
%class.vector.25 = type { ptr }
%class.svector.5 = type { %class.vector.6 }
%class.vector.6 = type { ptr }
%class.arith_util = type { ptr, ptr }
%class.bv_util = type { %class.bv_recognizers, ptr, ptr }
%class.bv_recognizers = type { i32 }
%class.ref_vector.85 = type { %class.ref_vector_core.86 }
%class.ref_vector_core.86 = type { %class.ref_manager_wrapper.87, %class.ptr_vector.88 }
%class.ref_manager_wrapper.87 = type { ptr }
%class.ptr_vector.88 = type { %class.vector.89 }
%class.vector.89 = type { ptr }
%class.scoped_ptr.97 = type { ptr }
%class.statistics = type { %class.svector.135, %class.svector.137 }
%class.svector.135 = type { %class.vector.136 }
%class.vector.136 = type { ptr }
%class.svector.137 = type { %class.vector.138 }
%class.vector.138 = type { ptr }
%class.svector.59 = type { %class.vector.60 }
%class.vector.60 = type { ptr }
%class.ref_vector = type { %class.ref_vector_core }
%class.ref_vector_core = type { %class.ref_manager_wrapper, %class.ptr_vector.24 }
%class.ref_manager_wrapper = type { ptr }
%"class.intblast::solver" = type <{ %"class.euf::th_euf_solver.base", [4 x i8], ptr, ptr, ptr, %class.bv_util, %class.arith_util, %"class.intblast::translator_trail", %class.bv2int_translator, %class.scoped_ptr.97, %class.svector.59, %class.statistics, i8, [3 x i8], i32, i32, [4 x i8] }>
%"class.euf::th_euf_solver.base" = type <{ %"class.euf::th_solver", ptr, %class.ptr_vector, %class.svector.5, i32 }>
%"class.euf::th_solver" = type { %"class.sat::extension", %"class.euf::th_model_builder", %"class.euf::th_decompile", %"class.euf::th_internalizer", ptr }
%"class.euf::th_model_builder" = type { ptr }
%class.bv2int_translator = type <{ ptr, ptr, %class.bv_util, %class.arith_util, %class.obj_map.155, %class.ref_vector, %class.ref_vector, %class.ref_vector.85, %class.ptr_vector.160, %class.ptr_vector.160, %class.ref_vector, %class.ref_vector, i8, [7 x i8] }>
%class.obj_map.155 = type { %class.core_hashtable.156 }
%class.core_hashtable.156 = type <{ ptr, i32, i32, i32, [4 x i8] }>
%class.ptr_vector.160 = type { %class.vector.161 }
%class.vector.161 = type { ptr }

; Function Attrs: inlinehint mustprogress nounwind uwtable
define linkonce_odr hidden noundef ptr @_Z6to_appP3ast(ptr noundef %0) #7 comdat {
  %2 = alloca ptr, align 8
  store ptr %0, ptr %2, align 8, !tbaa !448
  %3 = load ptr, ptr %2, align 8, !tbaa !448
  ret ptr %3
}

; Function Attrs: mustprogress uwtable
define hidden noundef zeroext i1 @_ZN8intblast6solver10post_visitEP4exprbb(ptr noundef nonnull align 8 dereferenceable(420) %0, ptr noundef %1, i1 noundef zeroext %2, i1 noundef zeroext %3) unnamed_addr #4 align 2 {
  %5 = alloca i1, align 1
  %6 = alloca ptr, align 8
  %7 = alloca ptr, align 8
  %8 = alloca i8, align 1
  %9 = alloca i8, align 1
  %10 = alloca ptr, align 8
  %11 = alloca ptr, align 8
  %12 = alloca i32, align 4
  store ptr %0, ptr %6, align 8, !tbaa !19
  store ptr %1, ptr %7, align 8, !tbaa !437
  %13 = zext i1 %2 to i8
  store i8 %13, ptr %8, align 1, !tbaa !439
  %14 = zext i1 %3 to i8
  store i8 %14, ptr %9, align 1, !tbaa !439
  %15 = load ptr, ptr %6, align 8
  call void @llvm.lifetime.start.p0(i64 8, ptr %10) #3
  %16 = load ptr, ptr %7, align 8, !tbaa !437
  %17 = call noundef ptr @_ZNK3euf13th_euf_solver10expr2enodeEP4expr(ptr noundef nonnull align 8 dereferenceable(108) %15, ptr noundef %16)
  store ptr %17, ptr %10, align 8, !tbaa !433
  call void @llvm.lifetime.start.p0(i64 8, ptr %11) #3
  %18 = load ptr, ptr %7, align 8, !tbaa !437
  %19 = call noundef ptr @_Z6to_appP3ast(ptr noundef %18)
  store ptr %19, ptr %11, align 8, !tbaa !450
  %20 = load ptr, ptr %7, align 8, !tbaa !437
  %21 = load ptr, ptr %15, align 8, !tbaa !21
  %22 = getelementptr inbounds ptr, ptr %21, i64 70
  %23 = load ptr, ptr %22, align 8
  %24 = call noundef zeroext i1 %23(ptr noundef nonnull align 8 dereferenceable(420) %15, ptr noundef %20)
  br i1 %24, label %25, label %26

25:                                               ; preds = %4
  store i1 true, ptr %5, align 1
  store i32 1, ptr %12, align 4
  br label %40

26:                                               ; preds = %4
  %27 = load ptr, ptr %10, align 8, !tbaa !433
  %28 = icmp ne ptr %27, null
  br i1 %28, label %32, label %29

29:                                               ; preds = %26
  %30 = load ptr, ptr %7, align 8, !tbaa !437
  %31 = call noundef ptr @_ZN3euf13th_euf_solver8mk_enodeEP4exprb(ptr noundef nonnull align 8 dereferenceable(108) %15, ptr noundef %30, i1 noundef zeroext false)
  store ptr %31, ptr %10, align 8, !tbaa !433
  br label %32

32:                                               ; preds = %29, %26
  %33 = load ptr, ptr %10, align 8, !tbaa !433
  %34 = load ptr, ptr %15, align 8, !tbaa !21
  %35 = getelementptr inbounds ptr, ptr %34, i64 66
  %36 = load ptr, ptr %35, align 8
  %37 = call noundef i32 %36(ptr noundef nonnull align 8 dereferenceable(420) %15, ptr noundef %33)
  %38 = getelementptr inbounds nuw %"class.intblast::solver", ptr %15, i32 0, i32 8
  %39 = load ptr, ptr %11, align 8, !tbaa !450
  call void @_ZN17bv2int_translator14internalize_bvEP3app(ptr noundef nonnull align 8 dereferenceable(177) %38, ptr noundef %39)
  store i1 true, ptr %5, align 1
  store i32 1, ptr %12, align 4
  br label %40

40:                                               ; preds = %32, %25
  call void @llvm.lifetime.end.p0(i64 8, ptr %11) #3
  call void @llvm.lifetime.end.p0(i64 8, ptr %10) #3
  %41 = load i1, ptr %5, align 1
  ret i1 %41
}

; Function Attrs: uwtable
define hidden noundef zeroext i1 @_ZThn48_N8intblast6solver10post_visitEP4exprbb(ptr noundef %0, ptr noundef %1, i1 noundef zeroext %2, i1 noundef zeroext %3) unnamed_addr #0 align 2 {
  %5 = alloca ptr, align 8
  %6 = alloca ptr, align 8
  %7 = alloca i8, align 1
  %8 = alloca i8, align 1
  store ptr %0, ptr %5, align 8, !tbaa !19
  store ptr %1, ptr %6, align 8, !tbaa !437
  %9 = zext i1 %2 to i8
  store i8 %9, ptr %7, align 1, !tbaa !439
  %10 = zext i1 %3 to i8
  store i8 %10, ptr %8, align 1, !tbaa !439
  %11 = load ptr, ptr %5, align 8
  %12 = getelementptr inbounds i8, ptr %11, i64 -48
  %13 = load ptr, ptr %6, align 8, !tbaa !437
  %14 = load i8, ptr %7, align 1, !tbaa !439, !range !440, !noundef !441
  %15 = trunc i8 %14 to i1
  %16 = load i8, ptr %8, align 1, !tbaa !439, !range !440, !noundef !441
  %17 = trunc i8 %16 to i1
  %18 = tail call noundef zeroext i1 @_ZN8intblast6solver10post_visitEP4exprbb(ptr noundef nonnull align 8 dereferenceable(420) %12, ptr noundef %13, i1 noundef zeroext %15, i1 noundef zeroext %17)
  ret i1 %18
}