; Function Attrs: uwtable
define hidden noundef zeroext i1 @_ZThn48_N8intblast6solver10post_visitEP4exprbb(ptr noundef %0, ptr noundef %1, i1 zeroext %2, i1 zeroext %3) unnamed_addr #8 align 2 {
  %5 = getelementptr inbounds i8, ptr %0, i64 -48
  %6 = tail call noundef ptr @_ZNK3euf13th_euf_solver10expr2enodeEP4expr(ptr noundef nonnull align 8 dereferenceable(420) %5, ptr noundef %1)
  %7 = load ptr, ptr %5, align 8, !tbaa !10
  %8 = getelementptr inbounds nuw i8, ptr %7, i64 560
  %9 = load ptr, ptr %8, align 8
  %10 = tail call noundef zeroext i1 %9(ptr noundef nonnull align 8 dereferenceable(420) %5, ptr noundef %1)
  br i1 %10, label %_ZN8intblast6solver10post_visitEP4exprbb.exit, label %11

11:                                               ; preds = %4
  %.not.i = icmp eq ptr %6, null
  br i1 %.not.i, label %12, label %14

12:                                               ; preds = %11
  %13 = tail call noundef ptr @_ZN3euf13th_euf_solver8mk_enodeEP4exprb(ptr noundef nonnull align 8 dereferenceable(420) %5, ptr noundef %1, i1 noundef zeroext false)
  br label %14

14:                                               ; preds = %12, %11
  %.09.i = phi ptr [ %6, %11 ], [ %13, %12 ]
  %15 = load ptr, ptr %5, align 8, !tbaa !10
  %16 = getelementptr inbounds nuw i8, ptr %15, i64 528
  %17 = load ptr, ptr %16, align 8
  %18 = tail call noundef i32 %17(ptr noundef nonnull align 8 dereferenceable(420) %5, ptr noundef %.09.i)
  %19 = getelementptr inbounds nuw i8, ptr %0, i64 144
  tail call void @_ZN17bv2int_translator14internalize_bvEP3app(ptr noundef nonnull align 8 dereferenceable(177) %19, ptr noundef %1)
  br label %_ZN8intblast6solver10post_visitEP4exprbb.exit

_ZN8intblast6solver10post_visitEP4exprbb.exit:    ; preds = %4, %14
  ret i1 true
}